target datalayout = "e-m:e-p270:32:32-p271:32:32-p272:64:64-i64:64-i128:128-f80:128-n8:16:32:64-S128"
target triple = "x86_64-pc-linux-gnu"

%struct.rb_control_frame_struct = type { ptr, ptr, ptr, i64, ptr, ptr, ptr }

; Function Attrs: inlinehint nounwind sspstrong uwtable
define internal ptr @VM_ENV_PREV_EP(ptr noundef %0) #7 {
  %2 = alloca ptr, align 8
  store ptr %0, ptr %2, align 8, !tbaa !16
  %3 = load ptr, ptr %2, align 8, !tbaa !16
  %4 = getelementptr i64, ptr %3, i64 -1
  %5 = load i64, ptr %4, align 8, !tbaa !13
  %6 = and i64 %5, -4
  %7 = inttoptr i64 %6 to ptr
  ret ptr %7
}

; Function Attrs: nounwind sspstrong uwtable
define hidden ptr @rb_get_cfp_ep_level(ptr noundef %0, i32 noundef %1) #0 {
  %3 = alloca ptr, align 8
  %4 = alloca i32, align 4
  %5 = alloca i32, align 4
  %6 = alloca ptr, align 8
  store ptr %0, ptr %3, align 8, !tbaa !48
  store i32 %1, ptr %4, align 4, !tbaa !11
  call void @llvm.lifetime.start.p0(i64 4, ptr %5) #5
  call void @llvm.lifetime.start.p0(i64 8, ptr %6) #5
  %7 = load ptr, ptr %3, align 8, !tbaa !48
  %8 = getelementptr inbounds nuw %struct.rb_control_frame_struct, ptr %7, i32 0, i32 4
  %9 = load ptr, ptr %8, align 8, !tbaa !75
  store ptr %9, ptr %6, align 8, !tbaa !16
  store i32 0, ptr %5, align 4, !tbaa !11
  br label %10

10:                                               ; preds = %17, %2
  %11 = load i32, ptr %5, align 4, !tbaa !11
  %12 = load i32, ptr %4, align 4, !tbaa !11
  %13 = icmp ult i32 %11, %12
  br i1 %13, label %14, label %20

14:                                               ; preds = %10
  %15 = load ptr, ptr %6, align 8, !tbaa !16
  %16 = call ptr @VM_ENV_PREV_EP(ptr noundef %15)
  store ptr %16, ptr %6, align 8, !tbaa !16
  br label %17

17:                                               ; preds = %14
  %18 = load i32, ptr %5, align 4, !tbaa !11
  %19 = add i32 %18, 1
  store i32 %19, ptr %5, align 4, !tbaa !11
  br label %10, !llvm.loop !148

20:                                               ; preds = %10
  %21 = load ptr, ptr %6, align 8, !tbaa !16
  call void @llvm.lifetime.end.p0(i64 8, ptr %6) #5
  call void @llvm.lifetime.end.p0(i64 4, ptr %5) #5
  ret ptr %21
}