; Function Attrs: nofree norecurse nosync nounwind sspstrong memory(read, inaccessiblemem: none) uwtable
define hidden ptr @rb_get_cfp_ep_level(ptr noundef readonly captures(none) %0, i32 noundef %1) local_unnamed_addr #12 {
  %3 = getelementptr inbounds nuw i8, ptr %0, i64 32
  %4 = load ptr, ptr %3, align 8, !tbaa !56
  %.not = icmp eq i32 %1, 0
  br i1 %.not, label %._crit_edge, label %.lr.ph

.lr.ph:                                           ; preds = %2, %.lr.ph
  %.07 = phi ptr [ %7, %.lr.ph ], [ %4, %2 ]
  %.056 = phi i32 [ %8, %.lr.ph ], [ 0, %2 ]
  %5 = getelementptr i8, ptr %.07, i64 -8
  %.0.val = load i64, ptr %5, align 8, !tbaa !15
  %6 = and i64 %.0.val, -4
  %7 = inttoptr i64 %6 to ptr
  %8 = add nuw i32 %.056, 1
  %exitcond.not = icmp eq i32 %8, %1
  br i1 %exitcond.not, label %._crit_edge, label %.lr.ph, !llvm.loop !151

._crit_edge:                                      ; preds = %.lr.ph, %2
  %.0.lcssa = phi ptr [ %4, %2 ], [ %7, %.lr.ph ]
  ret ptr %.0.lcssa
}